target datalayout = "e-m:e-p270:32:32-p271:32:32-p272:64:64-i64:64-i128:128-f80:128-n8:16:32:64-S128"
target triple = "x86_64-pc-linux-gnu"

%struct.CCallInfo = type { ptr, i32 }
%struct.jit_State = type { %struct.GCtrace, ptr, ptr, ptr, ptr, ptr, ptr, i32, i32, i32, i8, i8, %struct.IRType1, i8, %struct.FoldState, ptr, i32, i32, i32, i32, i32, i32, i32, [1 x i32], [5 x %union.TValue], [3 x %union.TValue], ptr, i32, i32, i32, i32, ptr, ptr, i32, i32, i8, ptr, i32, i32, i16, [101 x i16], [258 x i32], [15 x i32], [16 x ptr], [64 x %struct.HotPenalty], i32, [16 x %struct.BPropEntry], i32, %struct.ScEvEntry, ptr, i32, i32, i32, ptr, i32, i32, ptr, ptr, ptr, i64, i64, %union.TValue, ptr, i32, i32 }
%struct.GCtrace = type { %struct.GCRef, i8, i8, i16, i32, i32, %struct.GCRef, ptr, i32, i32, ptr, ptr, %struct.GCRef, %struct.MRef, i32, i32, ptr, i32, i16, i16, i16, i16, i16, i16, i16, i8, i8, i8, i8 }
%struct.GCRef = type { i64 }
%struct.MRef = type { i64 }
%struct.IRType1 = type { i8 }
%struct.FoldState = type { %union.IRIns, [2 x %union.IRIns], [2 x %union.IRIns] }
%union.IRIns = type { %struct.GCRef }
%struct.HotPenalty = type { %struct.MRef, i16, i16 }
%struct.BPropEntry = type { i16, i16, i32 }
%struct.ScEvEntry = type { %struct.MRef, i16, i16, i16, i16, %struct.IRType1, i8 }
%union.TValue = type { i64 }
%struct.anon = type { i16, i16, i16, i16 }

@lj_ir_callinfo = external hidden constant [114 x %struct.CCallInfo], align 16

; Function Attrs: alwaysinline nounwind uwtable
define internal i32 @lj_ir_knum(ptr noundef %0, double noundef %1) #6 {
  %3 = alloca ptr, align 8
  %4 = alloca double, align 8
  %5 = alloca %union.TValue, align 8
  store ptr %0, ptr %3, align 8, !tbaa !4
  store double %1, ptr %4, align 8, !tbaa !45
  call void @llvm.lifetime.start.p0(i64 8, ptr %5) #8
  %6 = load double, ptr %4, align 8, !tbaa !45
  store double %6, ptr %5, align 8, !tbaa !29
  %7 = load ptr, ptr %3, align 8, !tbaa !4
  %8 = load i64, ptr %5, align 8, !tbaa !29
  %9 = call i32 @lj_ir_knum_u64(ptr noundef %7, i64 noundef %8)
  call void @llvm.lifetime.end.p0(i64 8, ptr %5) #8
  ret i32 %9
}

; Function Attrs: nounwind uwtable
define internal i32 @fold_kfold_fpcall2(ptr noundef %0) #0 {
  %2 = alloca i32, align 4
  %3 = alloca ptr, align 8
  %4 = alloca ptr, align 8
  %5 = alloca double, align 8
  %6 = alloca double, align 8
  %7 = alloca double, align 8
  store ptr %0, ptr %3, align 8, !tbaa !4
  %8 = load ptr, ptr %3, align 8, !tbaa !4
  %9 = getelementptr inbounds nuw %struct.jit_State, ptr %8, i32 0, i32 14
  %10 = getelementptr inbounds nuw %struct.FoldState, ptr %9, i32 0, i32 1
  %11 = getelementptr inbounds [2 x %union.IRIns], ptr %10, i64 0, i64 0
  %12 = getelementptr inbounds nuw %struct.anon, ptr %11, i32 0, i32 0
  %13 = load i16, ptr %12, align 8, !tbaa !29
  %14 = zext i16 %13 to i32
  %15 = icmp slt i32 %14, 32768
  br i1 %15, label %16, label %70

16:                                               ; preds = %1
  %17 = load ptr, ptr %3, align 8, !tbaa !4
  %18 = getelementptr inbounds nuw %struct.jit_State, ptr %17, i32 0, i32 14
  %19 = getelementptr inbounds nuw %struct.FoldState, ptr %18, i32 0, i32 1
  %20 = getelementptr inbounds [2 x %union.IRIns], ptr %19, i64 0, i64 0
  %21 = getelementptr inbounds nuw %struct.anon, ptr %20, i32 0, i32 1
  %22 = load i16, ptr %21, align 2, !tbaa !29
  %23 = zext i16 %22 to i32
  %24 = icmp slt i32 %23, 32768
  br i1 %24, label %25, label %70

25:                                               ; preds = %16
  call void @llvm.lifetime.start.p0(i64 8, ptr %4) #8
  %26 = load ptr, ptr %3, align 8, !tbaa !4
  %27 = getelementptr inbounds nuw %struct.jit_State, ptr %26, i32 0, i32 14
  %28 = getelementptr inbounds nuw %struct.FoldState, ptr %27, i32 0, i32 0
  %29 = getelementptr inbounds nuw %struct.anon, ptr %28, i32 0, i32 1
  %30 = load i16, ptr %29, align 2, !tbaa !29
  %31 = zext i16 %30 to i64
  %32 = getelementptr inbounds nuw [114 x %struct.CCallInfo], ptr @lj_ir_callinfo, i64 0, i64 %31
  store ptr %32, ptr %4, align 8, !tbaa !47
  call void @llvm.lifetime.start.p0(i64 8, ptr %5) #8
  %33 = load ptr, ptr %3, align 8, !tbaa !4
  %34 = getelementptr inbounds nuw %struct.jit_State, ptr %33, i32 0, i32 0
  %35 = getelementptr inbounds nuw %struct.GCtrace, ptr %34, i32 0, i32 7
  %36 = load ptr, ptr %35, align 8, !tbaa !32
  %37 = load ptr, ptr %3, align 8, !tbaa !4
  %38 = getelementptr inbounds nuw %struct.jit_State, ptr %37, i32 0, i32 14
  %39 = getelementptr inbounds nuw %struct.FoldState, ptr %38, i32 0, i32 1
  %40 = getelementptr inbounds [2 x %union.IRIns], ptr %39, i64 0, i64 0
  %41 = getelementptr inbounds nuw %struct.anon, ptr %40, i32 0, i32 0
  %42 = load i16, ptr %41, align 8, !tbaa !29
  %43 = zext i16 %42 to i64
  %44 = getelementptr inbounds nuw %union.IRIns, ptr %36, i64 %43
  %45 = getelementptr inbounds %union.IRIns, ptr %44, i64 1
  %46 = load double, ptr %45, align 8, !tbaa !29
  store double %46, ptr %5, align 8, !tbaa !45
  call void @llvm.lifetime.start.p0(i64 8, ptr %6) #8
  %47 = load ptr, ptr %3, align 8, !tbaa !4
  %48 = getelementptr inbounds nuw %struct.jit_State, ptr %47, i32 0, i32 0
  %49 = getelementptr inbounds nuw %struct.GCtrace, ptr %48, i32 0, i32 7
  %50 = load ptr, ptr %49, align 8, !tbaa !32
  %51 = load ptr, ptr %3, align 8, !tbaa !4
  %52 = getelementptr inbounds nuw %struct.jit_State, ptr %51, i32 0, i32 14
  %53 = getelementptr inbounds nuw %struct.FoldState, ptr %52, i32 0, i32 1
  %54 = getelementptr inbounds [2 x %union.IRIns], ptr %53, i64 0, i64 0
  %55 = getelementptr inbounds nuw %struct.anon, ptr %54, i32 0, i32 1
  %56 = load i16, ptr %55, align 2, !tbaa !29
  %57 = zext i16 %56 to i64
  %58 = getelementptr inbounds nuw %union.IRIns, ptr %50, i64 %57
  %59 = getelementptr inbounds %union.IRIns, ptr %58, i64 1
  %60 = load double, ptr %59, align 8, !tbaa !29
  store double %60, ptr %6, align 8, !tbaa !45
  call void @llvm.lifetime.start.p0(i64 8, ptr %7) #8
  %61 = load ptr, ptr %4, align 8, !tbaa !47
  %62 = getelementptr inbounds nuw %struct.CCallInfo, ptr %61, i32 0, i32 0
  %63 = load ptr, ptr %62, align 8, !tbaa !51
  %64 = load double, ptr %5, align 8, !tbaa !45
  %65 = load double, ptr %6, align 8, !tbaa !45
  %66 = call double %63(double noundef %64, double noundef %65)
  store double %66, ptr %7, align 8, !tbaa !45
  %67 = load ptr, ptr %3, align 8, !tbaa !4
  %68 = load double, ptr %7, align 8, !tbaa !45
  %69 = call i32 @lj_ir_knum(ptr noundef %67, double noundef %68)
  store i32 %69, ptr %2, align 4
  call void @llvm.lifetime.end.p0(i64 8, ptr %7) #8
  call void @llvm.lifetime.end.p0(i64 8, ptr %6) #8
  call void @llvm.lifetime.end.p0(i64 8, ptr %5) #8
  call void @llvm.lifetime.end.p0(i64 8, ptr %4) #8
  br label %71

70:                                               ; preds = %16, %1
  store i32 0, ptr %2, align 4
  br label %71

71:                                               ; preds = %70, %25
  %72 = load i32, ptr %2, align 4
  ret i32 %72
}