; Function Attrs: nounwind uwtable
define internal i32 @fold_kfold_fpcall2(ptr noundef %0) #0 {
  %2 = getelementptr inbounds nuw i8, ptr %0, i64 192
  %3 = load i16, ptr %2, align 8, !tbaa !28
  %4 = icmp sgt i16 %3, -1
  br i1 %4, label %5, label %28

5:                                                ; preds = %1
  %6 = getelementptr inbounds nuw i8, ptr %0, i64 194
  %7 = load i16, ptr %6, align 2, !tbaa !28
  %8 = icmp sgt i16 %7, -1
  br i1 %8, label %9, label %28

9:                                                ; preds = %5
  %10 = getelementptr inbounds nuw i8, ptr %0, i64 186
  %11 = load i16, ptr %10, align 2, !tbaa !28
  %12 = zext i16 %11 to i64
  %13 = getelementptr inbounds nuw [114 x %struct.CCallInfo], ptr @lj_ir_callinfo, i64 0, i64 %12
  %14 = getelementptr inbounds nuw i8, ptr %0, i64 32
  %15 = load ptr, ptr %14, align 8, !tbaa !30
  %16 = zext nneg i16 %3 to i64
  %17 = getelementptr inbounds nuw %union.IRIns, ptr %15, i64 %16
  %18 = getelementptr inbounds nuw i8, ptr %17, i64 8
  %19 = load double, ptr %18, align 8, !tbaa !28
  %20 = zext nneg i16 %7 to i64
  %21 = getelementptr inbounds nuw %union.IRIns, ptr %15, i64 %20
  %22 = getelementptr inbounds nuw i8, ptr %21, i64 8
  %23 = load double, ptr %22, align 8, !tbaa !28
  %24 = load ptr, ptr %13, align 16, !tbaa !43
  %25 = tail call double %24(double noundef %19, double noundef %23) #12
  %26 = bitcast double %25 to i64
  %27 = tail call i32 @lj_ir_knum_u64(ptr noundef nonnull %0, i64 noundef %26) #12
  br label %28

28:                                               ; preds = %1, %5, %9
  %.0 = phi i32 [ %27, %9 ], [ 0, %5 ], [ 0, %1 ]
  ret i32 %.0
}